target datalayout = "e-m:e-p270:32:32-p271:32:32-p272:64:64-i64:64-i128:128-f80:128-n8:16:32:64-S128"
target triple = "x86_64-pc-linux-gnu"

%struct.Cnf_ThData_t_ = type { ptr, i32, i32, i32, i32, i32 }
%struct.Vec_Int_t_ = type { i32, i32, ptr }

@stdout = external global ptr, align 8
@.str.14 = private unnamed_addr constant [47 x i8] c"Running concurrent solving with %d processes.\0A\00", align 1

; Function Attrs: inlinehint nounwind uwtable
define internal void @Vec_IntFreeP(ptr noundef %0) #4 {
  %2 = alloca ptr, align 8
  store ptr %0, ptr %2, align 8, !tbaa !38
  %3 = load ptr, ptr %2, align 8, !tbaa !38
  %4 = load ptr, ptr %3, align 8, !tbaa !7
  %5 = icmp eq ptr %4, null
  br i1 %5, label %6, label %7

6:                                                ; preds = %1
  br label %32

7:                                                ; preds = %1
  %8 = load ptr, ptr %2, align 8, !tbaa !38
  %9 = load ptr, ptr %8, align 8, !tbaa !7
  %10 = getelementptr inbounds nuw %struct.Vec_Int_t_, ptr %9, i32 0, i32 2
  %11 = load ptr, ptr %10, align 8, !tbaa !40
  %12 = icmp ne ptr %11, null
  br i1 %12, label %13, label %21

13:                                               ; preds = %7
  %14 = load ptr, ptr %2, align 8, !tbaa !38
  %15 = load ptr, ptr %14, align 8, !tbaa !7
  %16 = getelementptr inbounds nuw %struct.Vec_Int_t_, ptr %15, i32 0, i32 2
  %17 = load ptr, ptr %16, align 8, !tbaa !40
  call void @free(ptr noundef %17) #12
  %18 = load ptr, ptr %2, align 8, !tbaa !38
  %19 = load ptr, ptr %18, align 8, !tbaa !7
  %20 = getelementptr inbounds nuw %struct.Vec_Int_t_, ptr %19, i32 0, i32 2
  store ptr null, ptr %20, align 8, !tbaa !40
  br label %22

21:                                               ; preds = %7
  br label %22

22:                                               ; preds = %21, %13
  %23 = load ptr, ptr %2, align 8, !tbaa !38
  %24 = load ptr, ptr %23, align 8, !tbaa !7
  %25 = icmp ne ptr %24, null
  br i1 %25, label %26, label %30

26:                                               ; preds = %22
  %27 = load ptr, ptr %2, align 8, !tbaa !38
  %28 = load ptr, ptr %27, align 8, !tbaa !7
  call void @free(ptr noundef %28) #12
  %29 = load ptr, ptr %2, align 8, !tbaa !38
  store ptr null, ptr %29, align 8, !tbaa !7
  br label %31

30:                                               ; preds = %22
  br label %31

31:                                               ; preds = %30, %26
  br label %32

32:                                               ; preds = %31, %6
  ret void
}

; Function Attrs: nounwind uwtable
define ptr @Cnf_RunSolverArray(i32 noundef %0, i32 noundef %1, i32 noundef %2) #0 {
  %4 = alloca i32, align 4
  %5 = alloca i32, align 4
  %6 = alloca i32, align 4
  %7 = alloca ptr, align 8
  %8 = alloca i32, align 4
  store i32 %0, ptr %4, align 4, !tbaa !3
  store i32 %1, ptr %5, align 4, !tbaa !3
  store i32 %2, ptr %6, align 4, !tbaa !3
  call void @llvm.lifetime.start.p0(i64 8, ptr %7) #12
  store ptr null, ptr %7, align 8, !tbaa !7
  call void @llvm.lifetime.start.p0(i64 4, ptr %8) #12
  store i32 0, ptr %8, align 4, !tbaa !3
  br label %9

9:                                                ; preds = %21, %3
  %10 = load i32, ptr %8, align 4, !tbaa !3
  %11 = load i32, ptr %4, align 4, !tbaa !3
  %12 = icmp slt i32 %10, %11
  br i1 %12, label %13, label %24

13:                                               ; preds = %9
  %14 = load i32, ptr %8, align 4, !tbaa !3
  %15 = load i32, ptr %5, align 4, !tbaa !3
  %16 = load i32, ptr %6, align 4, !tbaa !3
  %17 = call ptr @Cnf_RunSolverOnce(i32 noundef %14, i32 noundef 0, i32 noundef %15, i32 noundef %16)
  store ptr %17, ptr %7, align 8, !tbaa !7
  %18 = icmp ne ptr %17, null
  br i1 %18, label %19, label %20

19:                                               ; preds = %13
  br label %24

20:                                               ; preds = %13
  br label %21

21:                                               ; preds = %20
  %22 = load i32, ptr %8, align 4, !tbaa !3
  %23 = add nsw i32 %22, 1
  store i32 %23, ptr %8, align 4, !tbaa !3
  br label %9, !llvm.loop !18

24:                                               ; preds = %19, %9
  %25 = load ptr, ptr %7, align 8, !tbaa !7
  call void @llvm.lifetime.end.p0(i64 4, ptr %8) #12
  call void @llvm.lifetime.end.p0(i64 8, ptr %7) #12
  ret ptr %25
}

; Function Attrs: nounwind uwtable
define ptr @Cnf_RunSolver(i32 noundef %0, i32 noundef %1, i32 noundef %2) #0 {
  %4 = alloca ptr, align 8
  %5 = alloca i32, align 4
  %6 = alloca i32, align 4
  %7 = alloca i32, align 4
  %8 = alloca ptr, align 8
  %9 = alloca [100 x %struct.Cnf_ThData_t_], align 16
  %10 = alloca [100 x i64], align 16
  %11 = alloca i32, align 4
  %12 = alloca i32, align 4
  %13 = alloca i32, align 4
  %14 = alloca i32, align 4
  store i32 %0, ptr %5, align 4, !tbaa !3
  store i32 %1, ptr %6, align 4, !tbaa !3
  store i32 %2, ptr %7, align 4, !tbaa !3
  call void @llvm.lifetime.start.p0(i64 8, ptr %8) #12
  store ptr null, ptr %8, align 8, !tbaa !7
  call void @llvm.lifetime.start.p0(i64 3200, ptr %9) #12
  call void @llvm.lifetime.start.p0(i64 800, ptr %10) #12
  call void @llvm.lifetime.start.p0(i64 4, ptr %11) #12
  call void @llvm.lifetime.start.p0(i64 4, ptr %12) #12
  call void @llvm.lifetime.start.p0(i64 4, ptr %13) #12
  %15 = load i32, ptr %7, align 4, !tbaa !3
  %16 = icmp ne i32 %15, 0
  br i1 %16, label %17, label %20

17:                                               ; preds = %3
  %18 = load i32, ptr %5, align 4, !tbaa !3
  %19 = call i32 (ptr, ...) @printf(ptr noundef @.str.14, i32 noundef %18)
  br label %20

20:                                               ; preds = %17, %3
  %21 = load ptr, ptr @stdout, align 8, !tbaa !14
  %22 = call i32 @fflush(ptr noundef %21)
  %23 = load i32, ptr %5, align 4, !tbaa !3
  %24 = icmp slt i32 %23, 2
  br i1 %24, label %25, label %30

25:                                               ; preds = %20
  %26 = load i32, ptr %5, align 4, !tbaa !3
  %27 = load i32, ptr %6, align 4, !tbaa !3
  %28 = load i32, ptr %7, align 4, !tbaa !3
  %29 = call ptr @Cnf_RunSolverArray(i32 noundef %26, i32 noundef %27, i32 noundef %28)
  store ptr %29, ptr %4, align 8
  store i32 1, ptr %14, align 4
  br label %178

30:                                               ; preds = %20
  store i32 0, ptr %11, align 4, !tbaa !3
  br label %31

31:                                               ; preds = %73, %30
  %32 = load i32, ptr %11, align 4, !tbaa !3
  %33 = load i32, ptr %5, align 4, !tbaa !3
  %34 = icmp slt i32 %32, %33
  br i1 %34, label %35, label %76

35:                                               ; preds = %31
  %36 = load i32, ptr %11, align 4, !tbaa !3
  %37 = sext i32 %36 to i64
  %38 = getelementptr inbounds [100 x %struct.Cnf_ThData_t_], ptr %9, i64 0, i64 %37
  %39 = getelementptr inbounds nuw %struct.Cnf_ThData_t_, ptr %38, i32 0, i32 0
  store ptr null, ptr %39, align 16, !tbaa !31
  %40 = load i32, ptr %11, align 4, !tbaa !3
  %41 = sext i32 %40 to i64
  %42 = getelementptr inbounds [100 x %struct.Cnf_ThData_t_], ptr %9, i64 0, i64 %41
  %43 = getelementptr inbounds nuw %struct.Cnf_ThData_t_, ptr %42, i32 0, i32 1
  store i32 -1, ptr %43, align 8, !tbaa !26
  %44 = call i32 @Abc_Random(i32 noundef 0)
  %45 = urem i32 %44, 16777216
  %46 = load i32, ptr %11, align 4, !tbaa !3
  %47 = sext i32 %46 to i64
  %48 = getelementptr inbounds [100 x %struct.Cnf_ThData_t_], ptr %9, i64 0, i64 %47
  %49 = getelementptr inbounds nuw %struct.Cnf_ThData_t_, ptr %48, i32 0, i32 2
  store i32 %45, ptr %49, align 4, !tbaa !28
  %50 = load i32, ptr %6, align 4, !tbaa !3
  %51 = load i32, ptr %11, align 4, !tbaa !3
  %52 = sext i32 %51 to i64
  %53 = getelementptr inbounds [100 x %struct.Cnf_ThData_t_], ptr %9, i64 0, i64 %52
  %54 = getelementptr inbounds nuw %struct.Cnf_ThData_t_, ptr %53, i32 0, i32 3
  store i32 %50, ptr %54, align 16, !tbaa !29
  %55 = load i32, ptr %11, align 4, !tbaa !3
  %56 = sext i32 %55 to i64
  %57 = getelementptr inbounds [100 x %struct.Cnf_ThData_t_], ptr %9, i64 0, i64 %56
  %58 = getelementptr inbounds nuw %struct.Cnf_ThData_t_, ptr %57, i32 0, i32 4
  store i32 0, ptr %58, align 4, !tbaa !32
  %59 = load i32, ptr %7, align 4, !tbaa !3
  %60 = load i32, ptr %11, align 4, !tbaa !3
  %61 = sext i32 %60 to i64
  %62 = getelementptr inbounds [100 x %struct.Cnf_ThData_t_], ptr %9, i64 0, i64 %61
  %63 = getelementptr inbounds nuw %struct.Cnf_ThData_t_, ptr %62, i32 0, i32 5
  store i32 %59, ptr %63, align 8, !tbaa !30
  %64 = getelementptr inbounds [100 x i64], ptr %10, i64 0, i64 0
  %65 = load i32, ptr %11, align 4, !tbaa !3
  %66 = sext i32 %65 to i64
  %67 = getelementptr inbounds i64, ptr %64, i64 %66
  %68 = getelementptr inbounds [100 x %struct.Cnf_ThData_t_], ptr %9, i64 0, i64 0
  %69 = load i32, ptr %11, align 4, !tbaa !3
  %70 = sext i32 %69 to i64
  %71 = getelementptr inbounds %struct.Cnf_ThData_t_, ptr %68, i64 %70
  %72 = call i32 @pthread_create(ptr noundef %67, ptr noundef null, ptr noundef @Cnf_WorkerThread, ptr noundef %71) #12
  store i32 %72, ptr %13, align 4, !tbaa !3
  br label %73

73:                                               ; preds = %35
  %74 = load i32, ptr %11, align 4, !tbaa !3
  %75 = add nsw i32 %74, 1
  store i32 %75, ptr %11, align 4, !tbaa !3
  br label %31, !llvm.loop !33

76:                                               ; preds = %31
  store i32 0, ptr %12, align 4, !tbaa !3
  br label %77

77:                                               ; preds = %117, %76
  %78 = load i32, ptr %12, align 4, !tbaa !3
  %79 = load i32, ptr %5, align 4, !tbaa !3
  %80 = icmp slt i32 %78, %79
  br i1 %80, label %81, label %118

81:                                               ; preds = %77
  store i32 0, ptr %11, align 4, !tbaa !3
  br label %82

82:                                               ; preds = %114, %81
  %83 = load i32, ptr %11, align 4, !tbaa !3
  %84 = load i32, ptr %5, align 4, !tbaa !3
  %85 = icmp slt i32 %83, %84
  br i1 %85, label %86, label %117

86:                                               ; preds = %82
  %87 = load i32, ptr %11, align 4, !tbaa !3
  %88 = sext i32 %87 to i64
  %89 = getelementptr inbounds [100 x %struct.Cnf_ThData_t_], ptr %9, i64 0, i64 %88
  %90 = getelementptr inbounds nuw %struct.Cnf_ThData_t_, ptr %89, i32 0, i32 4
  %91 = load i32, ptr %90, align 4, !tbaa !32
  %92 = icmp ne i32 %91, 0
  br i1 %92, label %93, label %94

93:                                               ; preds = %86
  br label %114

94:                                               ; preds = %86
  %95 = load i32, ptr %11, align 4, !tbaa !3
  %96 = sext i32 %95 to i64
  %97 = getelementptr inbounds [100 x %struct.Cnf_ThData_t_], ptr %9, i64 0, i64 %96
  %98 = getelementptr inbounds nuw %struct.Cnf_ThData_t_, ptr %97, i32 0, i32 0
  %99 = load ptr, ptr %98, align 16, !tbaa !31
  %100 = icmp ne ptr %99, null
  br i1 %100, label %101, label %103

101:                                              ; preds = %94
  %102 = load i32, ptr %5, align 4, !tbaa !3
  store i32 %102, ptr %12, align 4, !tbaa !3
  br label %117

103:                                              ; preds = %94
  %104 = load i32, ptr %12, align 4, !tbaa !3
  %105 = add nsw i32 %104, 1
  store i32 %105, ptr %12, align 4, !tbaa !3
  %106 = load i32, ptr %11, align 4, !tbaa !3
  %107 = sext i32 %106 to i64
  %108 = getelementptr inbounds [100 x %struct.Cnf_ThData_t_], ptr %9, i64 0, i64 %107
  %109 = getelementptr inbounds nuw %struct.Cnf_ThData_t_, ptr %108, i32 0, i32 1
  store i32 %104, ptr %109, align 8, !tbaa !26
  %110 = load i32, ptr %11, align 4, !tbaa !3
  %111 = sext i32 %110 to i64
  %112 = getelementptr inbounds [100 x %struct.Cnf_ThData_t_], ptr %9, i64 0, i64 %111
  %113 = getelementptr inbounds nuw %struct.Cnf_ThData_t_, ptr %112, i32 0, i32 4
  store i32 1, ptr %113, align 4, !tbaa !32
  br label %117

114:                                              ; preds = %93
  %115 = load i32, ptr %11, align 4, !tbaa !3
  %116 = add nsw i32 %115, 1
  store i32 %116, ptr %11, align 4, !tbaa !3
  br label %82, !llvm.loop !34

117:                                              ; preds = %103, %101, %82
  br label %77, !llvm.loop !35

118:                                              ; preds = %77
  store i32 0, ptr %11, align 4, !tbaa !3
  br label %119

119:                                              ; preds = %132, %118
  %120 = load i32, ptr %11, align 4, !tbaa !3
  %121 = load i32, ptr %5, align 4, !tbaa !3
  %122 = icmp slt i32 %120, %121
  br i1 %122, label %123, label %135

123:                                              ; preds = %119
  %124 = load i32, ptr %11, align 4, !tbaa !3
  %125 = sext i32 %124 to i64
  %126 = getelementptr inbounds [100 x %struct.Cnf_ThData_t_], ptr %9, i64 0, i64 %125
  %127 = getelementptr inbounds nuw %struct.Cnf_ThData_t_, ptr %126, i32 0, i32 4
  %128 = load i32, ptr %127, align 4, !tbaa !32
  %129 = icmp ne i32 %128, 0
  br i1 %129, label %130, label %131

130:                                              ; preds = %123
  store i32 -1, ptr %11, align 4, !tbaa !3
  br label %131

131:                                              ; preds = %130, %123
  br label %132

132:                                              ; preds = %131
  %133 = load i32, ptr %11, align 4, !tbaa !3
  %134 = add nsw i32 %133, 1
  store i32 %134, ptr %11, align 4, !tbaa !3
  br label %119, !llvm.loop !36

135:                                              ; preds = %119
  store i32 0, ptr %11, align 4, !tbaa !3
  br label %136

136:                                              ; preds = %173, %135
  %137 = load i32, ptr %11, align 4, !tbaa !3
  %138 = load i32, ptr %5, align 4, !tbaa !3
  %139 = icmp slt i32 %137, %138
  br i1 %139, label %140, label %176

140:                                              ; preds = %136
  %141 = load i32, ptr %11, align 4, !tbaa !3
  %142 = sext i32 %141 to i64
  %143 = getelementptr inbounds [100 x %struct.Cnf_ThData_t_], ptr %9, i64 0, i64 %142
  %144 = getelementptr inbounds nuw %struct.Cnf_ThData_t_, ptr %143, i32 0, i32 0
  %145 = load ptr, ptr %144, align 16, !tbaa !31
  %146 = icmp ne ptr %145, null
  br i1 %146, label %147, label %160

147:                                              ; preds = %140
  %148 = load ptr, ptr %8, align 8, !tbaa !7
  %149 = icmp eq ptr %148, null
  br i1 %149, label %150, label %160

150:                                              ; preds = %147
  %151 = load i32, ptr %11, align 4, !tbaa !3
  %152 = sext i32 %151 to i64
  %153 = getelementptr inbounds [100 x %struct.Cnf_ThData_t_], ptr %9, i64 0, i64 %152
  %154 = getelementptr inbounds nuw %struct.Cnf_ThData_t_, ptr %153, i32 0, i32 0
  %155 = load ptr, ptr %154, align 16, !tbaa !31
  store ptr %155, ptr %8, align 8, !tbaa !7
  %156 = load i32, ptr %11, align 4, !tbaa !3
  %157 = sext i32 %156 to i64
  %158 = getelementptr inbounds [100 x %struct.Cnf_ThData_t_], ptr %9, i64 0, i64 %157
  %159 = getelementptr inbounds nuw %struct.Cnf_ThData_t_, ptr %158, i32 0, i32 0
  store ptr null, ptr %159, align 16, !tbaa !31
  br label %160

160:                                              ; preds = %150, %147, %140
  %161 = load i32, ptr %11, align 4, !tbaa !3
  %162 = sext i32 %161 to i64
  %163 = getelementptr inbounds [100 x %struct.Cnf_ThData_t_], ptr %9, i64 0, i64 %162
  %164 = getelementptr inbounds nuw %struct.Cnf_ThData_t_, ptr %163, i32 0, i32 0
  call void @Vec_IntFreeP(ptr noundef %164)
  %165 = load i32, ptr %11, align 4, !tbaa !3
  %166 = sext i32 %165 to i64
  %167 = getelementptr inbounds [100 x %struct.Cnf_ThData_t_], ptr %9, i64 0, i64 %166
  %168 = getelementptr inbounds nuw %struct.Cnf_ThData_t_, ptr %167, i32 0, i32 1
  store i32 -1, ptr %168, align 8, !tbaa !26
  %169 = load i32, ptr %11, align 4, !tbaa !3
  %170 = sext i32 %169 to i64
  %171 = getelementptr inbounds [100 x %struct.Cnf_ThData_t_], ptr %9, i64 0, i64 %170
  %172 = getelementptr inbounds nuw %struct.Cnf_ThData_t_, ptr %171, i32 0, i32 4
  store i32 1, ptr %172, align 4, !tbaa !32
  br label %173

173:                                              ; preds = %160
  %174 = load i32, ptr %11, align 4, !tbaa !3
  %175 = add nsw i32 %174, 1
  store i32 %175, ptr %11, align 4, !tbaa !3
  br label %136, !llvm.loop !37

176:                                              ; preds = %136
  %177 = load ptr, ptr %8, align 8, !tbaa !7
  store ptr %177, ptr %4, align 8
  store i32 1, ptr %14, align 4
  br label %178

178:                                              ; preds = %176, %25
  call void @llvm.lifetime.end.p0(i64 4, ptr %13) #12
  call void @llvm.lifetime.end.p0(i64 4, ptr %12) #12
  call void @llvm.lifetime.end.p0(i64 4, ptr %11) #12
  call void @llvm.lifetime.end.p0(i64 800, ptr %10) #12
  call void @llvm.lifetime.end.p0(i64 3200, ptr %9) #12
  call void @llvm.lifetime.end.p0(i64 8, ptr %8) #12
  %179 = load ptr, ptr %4, align 8
  ret ptr %179
}