; Function Attrs: nounwind uwtable
define ptr @Cnf_RunSolver(i32 noundef %0, i32 noundef %1, i32 noundef %2) local_unnamed_addr #0 {
  %4 = alloca [100 x %struct.Cnf_ThData_t_], align 16
  %5 = alloca [100 x i64], align 16
  call void @llvm.lifetime.start.p0(i64 3200, ptr nonnull %4) #22
  call void @llvm.lifetime.start.p0(i64 800, ptr nonnull %5) #22
  %.not = icmp eq i32 %2, 0
  br i1 %.not, label %8, label %6

6:                                                ; preds = %3
  %7 = tail call i32 (ptr, ...) @printf(ptr noundef nonnull dereferenceable(1) @.str.14, i32 noundef %0)
  br label %8

8:                                                ; preds = %6, %3
  %9 = load ptr, ptr @stdout, align 8, !tbaa !9
  %10 = tail call i32 @fflush(ptr noundef %9)
  %11 = icmp slt i32 %0, 2
  br i1 %11, label %12, label %.preheader64.preheader

.preheader64.preheader:                           ; preds = %8
  %wide.trip.count = zext nneg i32 %0 to i64
  br label %.preheader64

12:                                               ; preds = %8
  %13 = icmp eq i32 %0, 1
  br i1 %13, label %.lr.ph.i.preheader, label %Cnf_RunSolverArray.exit

.lr.ph.i.preheader:                               ; preds = %12
  %14 = tail call ptr @Cnf_RunSolverOnce(i32 noundef 0, i32 noundef 0, i32 noundef %1, i32 noundef %2)
  br label %Cnf_RunSolverArray.exit

.preheader62.us:                                  ; preds = %.preheader64, %..loopexit_crit_edge.us
  %.04669.us = phi i32 [ %.1.us, %..loopexit_crit_edge.us ], [ 0, %.preheader64 ]
  br label %16

15:                                               ; preds = %16
  %indvars.iv.next78 = add nuw nsw i64 %indvars.iv77, 1
  %exitcond81.not = icmp eq i64 %indvars.iv.next78, %wide.trip.count
  br i1 %exitcond81.not, label %..loopexit_crit_edge.us, label %16, !llvm.loop !25

16:                                               ; preds = %.preheader62.us, %15
  %indvars.iv77 = phi i64 [ 0, %.preheader62.us ], [ %indvars.iv.next78, %15 ]
  %17 = getelementptr inbounds nuw [100 x %struct.Cnf_ThData_t_], ptr %4, i64 0, i64 %indvars.iv77
  %18 = getelementptr inbounds nuw i8, ptr %17, i64 20
  %19 = load i32, ptr %18, align 4, !tbaa !24
  %.not55.us = icmp eq i32 %19, 0
  br i1 %.not55.us, label %20, label %15

20:                                               ; preds = %16
  %21 = load ptr, ptr %17, align 16, !tbaa !23
  %.not56.us = icmp eq ptr %21, null
  br i1 %.not56.us, label %22, label %.lr.ph73.preheader

22:                                               ; preds = %20
  %23 = getelementptr inbounds nuw i8, ptr %17, i64 20
  %24 = add nuw nsw i32 %.04669.us, 1
  %25 = getelementptr inbounds nuw i8, ptr %17, i64 8
  store i32 %.04669.us, ptr %25, align 8, !tbaa !17
  store i32 1, ptr %23, align 4, !tbaa !24
  br label %..loopexit_crit_edge.us

..loopexit_crit_edge.us:                          ; preds = %15, %22
  %.1.us = phi i32 [ %24, %22 ], [ %.04669.us, %15 ]
  %26 = icmp slt i32 %.1.us, %0
  br i1 %26, label %.preheader62.us, label %.lr.ph73.preheader, !llvm.loop !26

.preheader64:                                     ; preds = %.preheader64.preheader, %.preheader64
  %indvars.iv = phi i64 [ 0, %.preheader64.preheader ], [ %indvars.iv.next, %.preheader64 ]
  %27 = getelementptr inbounds nuw [100 x %struct.Cnf_ThData_t_], ptr %4, i64 0, i64 %indvars.iv
  store ptr null, ptr %27, align 16, !tbaa !23
  %28 = getelementptr inbounds nuw i8, ptr %27, i64 8
  store i32 -1, ptr %28, align 8, !tbaa !17
  %29 = call i32 @Abc_Random(i32 noundef 0) #22
  %30 = and i32 %29, 16777215
  %31 = getelementptr inbounds nuw i8, ptr %27, i64 12
  store i32 %30, ptr %31, align 4, !tbaa !20
  %32 = getelementptr inbounds nuw i8, ptr %27, i64 16
  store i32 %1, ptr %32, align 16, !tbaa !21
  %33 = getelementptr inbounds nuw i8, ptr %27, i64 20
  store i32 0, ptr %33, align 4, !tbaa !24
  %34 = getelementptr inbounds nuw i8, ptr %27, i64 24
  store i32 %2, ptr %34, align 8, !tbaa !22
  %35 = getelementptr inbounds nuw i64, ptr %5, i64 %indvars.iv
  %36 = call i32 @pthread_create(ptr noundef nonnull %35, ptr noundef null, ptr noundef nonnull @Cnf_WorkerThread, ptr noundef nonnull %27) #22
  %indvars.iv.next = add nuw nsw i64 %indvars.iv, 1
  %exitcond.not = icmp eq i64 %indvars.iv.next, %wide.trip.count
  br i1 %exitcond.not, label %.preheader62.us, label %.preheader64, !llvm.loop !27

.lr.ph73.preheader:                               ; preds = %20, %..loopexit_crit_edge.us
  %smax = call i32 @llvm.smax.i32(i32 %0, i32 1)
  %wide.trip.count85 = zext nneg i32 %smax to i64
  br label %.lr.ph73

.lr.ph73:                                         ; preds = %.lr.ph73.preheader, %Vec_IntFreeP.exit
  %indvars.iv82 = phi i64 [ 0, %.lr.ph73.preheader ], [ %indvars.iv.next83, %Vec_IntFreeP.exit ]
  %.04971 = phi ptr [ null, %.lr.ph73.preheader ], [ %.15059, %Vec_IntFreeP.exit ]
  %37 = getelementptr inbounds nuw [100 x %struct.Cnf_ThData_t_], ptr %4, i64 0, i64 %indvars.iv82
  %38 = load ptr, ptr %37, align 16, !tbaa !28
  %39 = icmp ne ptr %38, null
  %40 = icmp eq ptr %.04971, null
  %or.cond = select i1 %39, i1 %40, i1 false
  br i1 %or.cond, label %Vec_IntFreeP.exit.sink.split, label %41

41:                                               ; preds = %.lr.ph73
  %42 = icmp eq ptr %38, null
  br i1 %42, label %Vec_IntFreeP.exit, label %43

43:                                               ; preds = %41
  %44 = getelementptr inbounds nuw i8, ptr %38, i64 8
  %45 = load ptr, ptr %44, align 8, !tbaa !29
  %.not.i57 = icmp eq ptr %45, null
  br i1 %.not.i57, label %48, label %.thread.i

.thread.i:                                        ; preds = %43
  call void @free(ptr noundef nonnull %45) #22
  %46 = load ptr, ptr %37, align 16, !tbaa !28
  %47 = getelementptr inbounds nuw i8, ptr %46, i64 8
  store ptr null, ptr %47, align 8, !tbaa !29
  br label %48

48:                                               ; preds = %.thread.i, %43
  %49 = phi ptr [ %46, %.thread.i ], [ %38, %43 ]
  call void @free(ptr noundef nonnull %49) #22
  br label %Vec_IntFreeP.exit.sink.split

Vec_IntFreeP.exit.sink.split:                     ; preds = %.lr.ph73, %48
  %.15059.ph = phi ptr [ %.04971, %48 ], [ %38, %.lr.ph73 ]
  store ptr null, ptr %37, align 16, !tbaa !28
  br label %Vec_IntFreeP.exit

Vec_IntFreeP.exit:                                ; preds = %Vec_IntFreeP.exit.sink.split, %41
  %.15059 = phi ptr [ %.04971, %41 ], [ %.15059.ph, %Vec_IntFreeP.exit.sink.split ]
  %50 = getelementptr inbounds nuw i8, ptr %37, i64 8
  store i32 -1, ptr %50, align 8, !tbaa !17
  %51 = getelementptr inbounds nuw i8, ptr %37, i64 20
  store i32 1, ptr %51, align 4, !tbaa !24
  %indvars.iv.next83 = add nuw nsw i64 %indvars.iv82, 1
  %exitcond86.not = icmp eq i64 %indvars.iv.next83, %wide.trip.count85
  br i1 %exitcond86.not, label %Cnf_RunSolverArray.exit, label %.lr.ph73, !llvm.loop !32

Cnf_RunSolverArray.exit:                          ; preds = %Vec_IntFreeP.exit, %.lr.ph.i.preheader, %12
  %.0 = phi ptr [ null, %12 ], [ %14, %.lr.ph.i.preheader ], [ %.15059, %Vec_IntFreeP.exit ]
  call void @llvm.lifetime.end.p0(i64 800, ptr nonnull %5) #22
  call void @llvm.lifetime.end.p0(i64 3200, ptr nonnull %4) #22
  ret ptr %.0
}